; Function Attrs: null_pointer_is_valid sspstrong uwtable
define internal i32 @netlogon_dissect_NL_GENERIC_RPC_DATA(ptr noundef %0, i32 noundef %1, ptr noundef %2, ptr noundef %3, ptr noundef %4, ptr noundef %5) #0 {
  %7 = alloca ptr, align 8
  call void @llvm.lifetime.start.p0(i64 8, ptr nonnull %7) #15
  store ptr null, ptr %7, align 8
  %8 = getelementptr inbounds nuw i8, ptr %4, i64 25
  %9 = load i8, ptr %8, align 1, !range !6, !noundef !7
  %10 = trunc nuw i8 %9 to i1
  br i1 %10, label %22, label %11

11:                                               ; preds = %6
  %.not = icmp eq ptr %3, null
  br i1 %.not, label %15, label %12

12:                                               ; preds = %11
  %13 = load i32, ptr @ett_NL_GENERIC_RPC_DATA, align 4
  %14 = call ptr @proto_tree_add_subtree(ptr noundef nonnull %3, ptr noundef %0, i32 noundef %1, i32 noundef -1, i32 noundef %13, ptr noundef nonnull %7, ptr noundef nonnull @.str.1317)
  br label %15

15:                                               ; preds = %12, %11
  %.0 = phi ptr [ %14, %12 ], [ null, %11 ]
  %16 = load i32, ptr @hf_netlogon_trust_len, align 4
  %17 = call i32 @dissect_ndr_uint32(ptr noundef %0, i32 noundef %1, ptr noundef %2, ptr noundef %.0, ptr noundef %4, ptr noundef %5, i32 noundef %16, ptr noundef null)
  %18 = call i32 @dissect_ndr_pointer(ptr noundef %0, i32 noundef %17, ptr noundef %2, ptr noundef %.0, ptr noundef %4, ptr noundef %5, ptr noundef nonnull @netlogon_dissect_NL_GENERIC_RPC_DATA_UINT32_ARRAY, i32 noundef 2, ptr noundef nonnull @.str.1318, i32 noundef -1)
  %19 = load i32, ptr @hf_netlogon_trust_len, align 4
  %20 = call i32 @dissect_ndr_uint32(ptr noundef %0, i32 noundef %18, ptr noundef %2, ptr noundef %.0, ptr noundef %4, ptr noundef %5, i32 noundef %19, ptr noundef null)
  %21 = call i32 @dissect_ndr_pointer(ptr noundef %0, i32 noundef %20, ptr noundef %2, ptr noundef %.0, ptr noundef %4, ptr noundef %5, ptr noundef nonnull @netlogon_dissect_NL_GENERIC_RPC_DATA_STRING_ARRAY, i32 noundef 2, ptr noundef nonnull @.str.1319, i32 noundef -1)
  br label %22

22:                                               ; preds = %6, %15
  %.031 = phi i32 [ %21, %15 ], [ %1, %6 ]
  call void @llvm.lifetime.end.p0(i64 8, ptr nonnull %7) #15
  ret i32 %.031
}